Microchip MPLAB XC8 Compiler V2.41

Linker command line:

-W-3 \
  --edf=C:/Users/feher/.mchp_packs/Microchip/PIC16Fxxx_DFP/1.4.149/xc8\pic\dat\20230322214319_en.msgs \
  -cn -h+.ca/dist/Config_1/production\PICGame.X.production.sym \
  --cmf=.ca/dist/Config_1/production\PICGame.X.production.cmf -z -w9 \
  --disl=596:off --norlf -Q16F627 \
  -oC:\Users\feher\AppData\Local\Temp\xcAs62g.\driver_tmp_3.o \
  --defsym=__MPLAB_BUILD=1 \
  -M.ca/dist/Config_1/production/PICGame.X.production.map \
  --md=C:\Users\feher\AppData\Local\Temp\xcAs62g.\driver_tmp_0.dat -E1 \
  -ver=XC8 Compiler --acfsm=1493 -ACODE=00h-03FFh -ASTRCODE=00h-03FFh \
  -ASTRING=00h-0FFhx4 -ACONST=00h-0FFhx4 -AENTRY=00h-0FFhx4 \
  -ACOMMON=070h-07Fh -ABANK0=020h-06Fh -ABANK1=0A0h-0EFh \
  -ABANK2=0120h-014Fh -ARAM=020h-06Fh,0A0h-0EFh,0120h-014Fh \
  -AABS1=020h-07Fh,0A0h-0EFh,0120h-014Fh -ASFR0=00h-01Fh -ASFR1=080h-09Fh \
  -ASFR2=0100h-011Fh -ASFR3=0180h-01EFh -ACONFIG=02007h-02007h -DCONFIG=2 \
  -AIDLOC=02000h-02003h -DIDLOC=2 -AEEDATA=00h-07Fh/02100h \
  -peeprom_data=EEDATA -DEEDATA=2 -DCODE=2 -DSTRCODE=2 -DSTRING=2 -DCONST=2 \
  -DENTRY=2 -preset_vec=00h,intentry=04h,init,end_init -ppowerup=CODE \
  -pcinit=CODE -pfunctab=ENTRY -k \
  C:\Users\feher\AppData\Local\Temp\xcAs62g.\driver_tmp_13.o \
  .ca/dist/Config_1/production\PICGame.X.production.o 

Object code version is 3.11

Machine type is 16F627



                Name                               Link     Load   Length Selector   Space Scale
C:\Users\feher\AppData\Local\Temp\xcAs62g.\driver_tmp_13.o
                end_init                              E        E        2        8       0
                reset_vec                             0        0        1        0       0
                config                             2007     2007        1        0       4
                idloc                              2000     2000        4        0       5
.ca/dist/Config_1/production\PICGame.X.production.o
                cinit                                10       10        C        8       0
                intentry                              4        4        A        8       0
                config                             2007     2007        1        0       4
                idloc                              2000     2000        4        0       5
                text33                                0        0        B        0       0
                text32                                B        B        D        0       0
                text31                              27C      27C       2D        8       0
                text30                              1EE      1EE       32        8       0
                text29                               18       18        7        0       0
                text28                              3E6      3E6        E      5A4       0
                text27                               1F       1F        7        0       0
                text26                              39E      39E       17      5A4       0
                text25                              319      319       1E      5A4       0
                text24                              337      337       1D      5A4       0
                text23                              386      386       18      5A4       0
                text22                               BF       BF       46        8       0
                text21                              24F      24F       2D        8       0
                text20                              1BA      1BA       34        8       0
                text19                               26       26        7        0       0
                text18                               2D       2D        5        0       0
                text17                               32       32        5        0       0
                text16                              105      105       45        8       0
                text15                               37       37        7        0       0
                text14                               3E       3E        7        0       0
                text13                              185      185       35        8       0
                text12                               45       45        D        0       0
                text11                              2F8      2F8       21      5A4       0
                text10                              3C7      3C7       10      5A4       0
                text9                               36D      36D       19      5A4       0
                text8                                52       52        8        0       0
                text7                               3B5      3B5       12      5A4       0
                text6                                73       73       4C        8       0
                text5                               2D2      2D2       26      5A4       0
                text4                               3F4      3F4        B      5A4       0
                text3                                1C       1C       57        8       0
                text2                               220      220       2F        8       0
                text1                               354      354       19      5A4       0
                maintext                            14A      14A       3B        8       0
                cstackBANK0                          4D       4D       1F       20       1
                cstackCOMMON                         70       70        D       70       1
                clrtext                              5A       5A        8        0       0
                inittext                            3D7      3D7        F      5A4       0
                bssBANK1                             A0       A0       10       A0       1
                bssBANK0                             20       20       2D       20       1
                bssCOMMON                            7D       7D        1       70       1
                strings                             2A9      2A9       29      552       0
                idataEEDATA                           0     2100       39     4200       3

TOTAL           Name                               Link     Load   Length     Space
        CLASS   CODE           
                end_init                              E        E        2         0
                cinit                                10       10        C         0
                intentry                              4        4        A         0
                reset_vec                             0        0        1         0
                text33                                0        0        B         0
                text32                                B        B        D         0
                text31                              27C      27C       2D         0
                text30                              1EE      1EE       32         0
                text29                               18       18        7         0
                text28                              3E6      3E6        E         0
                text27                               1F       1F        7         0
                text26                              39E      39E       17         0
                text25                              319      319       1E         0
                text24                              337      337       1D         0
                text23                              386      386       18         0
                text22                               BF       BF       46         0
                text21                              24F      24F       2D         0
                text20                              1BA      1BA       34         0
                text19                               26       26        7         0
                text18                               2D       2D        5         0
                text17                               32       32        5         0
                text16                              105      105       45         0
                text15                               37       37        7         0
                text14                               3E       3E        7         0
                text13                              185      185       35         0
                text12                               45       45        D         0
                text11                              2F8      2F8       21         0
                text10                              3C7      3C7       10         0
                text9                               36D      36D       19         0
                text8                                52       52        8         0
                text7                               3B5      3B5       12         0
                text6                                73       73       4C         0
                text5                               2D2      2D2       26         0
                text4                               3F4      3F4        B         0
                text3                                1C       1C       57         0
                text2                               220      220       2F         0
                text1                               354      354       19         0
                maintext                            14A      14A       3B         0
                clrtext                              5A       5A        8         0
                inittext                            3D7      3D7        F         0

        CLASS   STRCODE        

        CLASS   STRING         
                strings                             2A9      2A9       29         0

        CLASS   CONST          

        CLASS   ENTRY          

        CLASS   COMMON         
                cstackCOMMON                         70       70        D         1
                bssCOMMON                            7D       7D        1         1

        CLASS   BANK0          
                cstackBANK0                          4D       4D       1F         1
                bssBANK0                             20       20       2D         1

        CLASS   BANK1          
                bssBANK1                             A0       A0       10         1

        CLASS   BANK2          

        CLASS   RAM            

        CLASS   ABS1           
                abs_s1                               7E       7E        2         1

        CLASS   SFR0           

        CLASS   SFR1           

        CLASS   SFR2           

        CLASS   SFR3           

        CLASS   CONFIG         
                config                             2007     2007        1         4

        CLASS   IDLOC          
                idloc                              2000     2000        4         5

        CLASS   EEDATA         
                idataEEDATA                           0     2100       39         3

        CLASS   BANK3          

        CLASS   STACK          



SEGMENTS        Name                           Load    Length   Top    Selector   Space  Class     Delta

                reset_vec                      000000  000001  000001         0       0  CODE        2
                intentry                       000004  0002A5  0002A9         8       0  CODE        2
                bssBANK0                       000020  00004C  00006C        20       1  BANK0       1
                cstackCOMMON                   000070  00000E  00007E        70       1  COMMON      1
                bssBANK1                       0000A0  000010  0000B0        A0       1  BANK1       1
                strings                        0002A9  000029  0002D2       552       0  STRING      2
                text5                          0002D2  00012D  0003FF       5A4       0  CODE        2
                idataEEDATA                    002100  000039  002139      4200       3  EEDATA      2


UNUSED ADDRESS RANGES

        Name                Unused          Largest block    Delta
        BANK0            006C-006F              4           1
        BANK1            00B0-00EF             40           1
        BANK2            0120-014F             30           1
        CODE             03FF-03FF              1           2
        CONST            03FF-03FF              1           2
        EEDATA           2139-217F             47           2
        ENTRY            03FF-03FF              1           2
        RAM              006C-006F              4           1
                         00B0-00EF             40
                         0120-014F             30
        SFR0             0000-001F             20           1
        SFR1             0080-009F             20           1
        SFR2             0100-011F             20           1
        SFR3             0180-01EF             70           1
        STRCODE          03FF-03FF              1           2
        STRING           03FF-03FF              1           2

                                  Symbol Table

__H__absolute__                     __absolute__ 0000
__Habs1                             abs1         0000
__Hbank0                            bank0        0000
__Hbank1                            bank1        0000
__Hbank2                            bank2        0000
__Hbank3                            bank3        0000
__Hclrtext                          clrtext      0000
__Hcode                             code         0000
__Hcommon                           common       0000
__Heeprom_data                      eeprom_data  0000
__Hfunctab                          functab      0000
__Hmaintext                         maintext     0000
__Hpowerup                          powerup      0000
__Hram                              ram          0000
__Hsfr0                             sfr0         0000
__Hsfr1                             sfr1         0000
__Hsfr2                             sfr2         0000
__Hsfr3                             sfr3         0000
__Hspace_2                          (abs)        0000
__Hstack                            stack        0000
__Hstrings                          strings      0000
__Htext                             text         0000
__L__absolute__                     __absolute__ 0000
__Labs1                             abs1         0000
__Lbank0                            bank0        0000
__Lbank1                            bank1        0000
__Lbank2                            bank2        0000
__Lbank3                            bank3        0000
__Lclrtext                          clrtext      0000
__Lcode                             code         0000
__Lcommon                           common       0000
__Lconfig                           config       0000
__Leeprom_data                      eeprom_data  0000
__Lfunctab                          functab      0000
__Lidloc                            idloc        0000
__Lmaintext                         maintext     0000
__Lpowerup                          powerup      0000
__Lram                              ram          0000
__Lreset_vec                        reset_vec    0000
__Lsfr0                             sfr0         0000
__Lsfr1                             sfr1         0000
__Lsfr2                             sfr2         0000
__Lsfr3                             sfr3         0000
__Lspace_0                          (abs)        0000
__Lspace_1                          (abs)        0000
__Lspace_2                          (abs)        0000
__Lspace_3                          (abs)        0000
__Lspace_4                          (abs)        0000
__Lstack                            stack        0000
__Lstrings                          strings      0000
__Ltext                             text         0000
___int_sp                           stack        0000
___latbits                          (abs)        0000
___sp                               stack        0000
___stackhi                          (abs)        0000
___stacklo                          (abs)        0000
__beep                              text33       0000
__pdataEEDATA                       dataEEDATA   0000
__pidataEEDATA                      idataEEDATA  0000
__ptext33                           text33       0000
_eeprom_cgram_data                  idataEEDATA  0000
intlevel0                           functab      0000
intlevel1                           functab      0000
intlevel2                           functab      0000
intlevel3                           functab      0000
intlevel4                           functab      0000
intlevel5                           functab      0000
reset_vec                           reset_vec    0000
_TMR0                               (abs)        0001
__Hreset_vec                        reset_vec    0001
_PORTA                              (abs)        0005
_PORTAbits                          (abs)        0005
_PORTB                              (abs)        0006
__Lintentry                         intentry     0004
__pintentry                         intentry     0004
interrupt_function                  intentry     0004
_INTCON                             (abs)        000B
_TMR2                               (abs)        0011
_T2CON                              (abs)        0012
_CCPR1L                             (abs)        0015
__end_of__beep                      text33       000B
__ptext32                           text32       000B
_beep_isr                           text32       000B
_CCP1CON                            (abs)        0017
__Hinit                             init         000E
__Hintentry                         intentry     000E
__Lend_init                         end_init     000E
__Linit                             init         000E
start                               init         000E
_CMCON                              (abs)        001F
__Hend_init                         end_init     0010
__Lcinit                            cinit        0010
__initialization                    cinit        0010
__pbssBANK0                         bssBANK0     0020
_gameB_spd                          bssBANK0     0020
start_initialization                cinit        0010
_LCD                                bssBANK0     0022
psrand@psrand_seed                  bssBANK0     0024
_gameB_truckpos                     bssBANK0     0025
_gameB_active                       bssBANK0     0026
_kbd_skip_t0_cyc                    bssBANK0     0027
_key_col_select                     bssBANK0     0028
_prev_key                           bssBANK0     0029
_key                                bssBANK0     002A
_gameB_track                        bssBANK0     002B
__end_of_beep_isr                   text32       0018
__ptext29                           text29       0018
_eeprom_keys                        idataEEDATA  0018
i1_LCDPutRS0Cmd                     text29       0018
__end_of__initialization            cinit        001A
end_of_initialization               cinit        001A
__Hcinit                            cinit        001C
__ptext3                            text3        001C
_gameB                              text3        001C
__Hspace_3                          (abs)        0039
__end_ofi1_LCDPutRS0Cmd             text29       001F
__ptext27                           text27       001F
i1_LCDPutChar                       text27       001F
_LCDPutRS0Cmd                       text19       0026
__end_ofi1_LCDPutChar               text27       0026
__ptext19                           text19       0026
__pcstackBANK0                      cstackBANK0  004D
isr@_col                            cstackBANK0  004D
isr@_row                            cstackBANK0  004E
isr@_key                            cstackBANK0  004F
___eecpymem@from                    cstackBANK0  0050
clearstr@str                        cstackBANK0  0050
psrand@res                          cstackBANK0  0050
LCDWaitNotBusy@busy                 cstackBANK0  0051
___eecpymem@size                    cstackBANK0  0051
___eecpymem@cp                      cstackBANK0  0052
_tiles                              idataEEDATA  0029
LCDPut@data                         cstackBANK0  0053
___eecpymem@to                      cstackBANK0  0053
LCDPutChar@chr                      cstackBANK0  0054
LCDPutRS0Cmd@cmd                    cstackBANK0  0054
___eetoc@addr                       cstackBANK0  0054
LCDSetCGRAMAddress@addr             cstackBANK0  0055
LCDSetCursorPos@y                   cstackBANK0  0055
LCDWriteString@str                  cstackBANK0  0055
___eetoc@data                       cstackBANK0  0055
LCDStoreCustom5x8Character@dataarr  cstackBANK0  0056
LCDInit@i                           cstackBANK0  0057
LCDSetCursorPos@x                   cstackBANK0  0057
LCDStoreCustom5x8Character@code     cstackBANK0  0058
gameA@second_line                   cstackBANK0  0058
gameB@i                             cstackBANK0  0058
LCDStoreCustom5x8Character@cnt      cstackBANK0  0059
_LCDDisplayControl                  text18       002D
_T0IF                               (abs)        005A
__end_of_LCDPutRS0Cmd               text19       002D
__ptext18                           text18       002D
gameB@j                             cstackBANK0  005A
gameB@i_203                         cstackBANK0  005B
_LCDEntryModeSet                    text17       0032
__end_of_LCDDisplayControl          text18       0032
__ptext17                           text17       0032
gameA@xpos                          cstackBANK0  0069
gameA@ypos                          cstackBANK0  006A
main@i                              cstackBANK0  006B
_LCDPutChar                         text15       0037
__end_of_LCDEntryModeSet            text17       0037
__ptext15                           text15       0037
__beep@length                       cstackCOMMON 0070
__pcstackCOMMON                     cstackCOMMON 0070
kbd_eval@col                        cstackCOMMON 0070
i1LCDWaitNotBusy@busy               cstackCOMMON 0071
kbd_eval@key_ptr                    cstackCOMMON 0071
kbd_eval@row                        cstackCOMMON 0072
i1LCDPut@data                       cstackCOMMON 0073
i1LCDPutChar@chr                    cstackCOMMON 0074
i1LCDPutRS0Cmd@cmd                  cstackCOMMON 0074
i1LCDSetCursorPos@y                 cstackCOMMON 0075
i1LCDWriteString@str                cstackCOMMON 0075
i1LCDSetCursorPos@x                 cstackCOMMON 0077
_LCDSetCGRAMAddress                 text14       003E
__end_of_LCDPutChar                 text15       003E
__ptext14                           text14       003E
__pbssCOMMON                        bssCOMMON    007D
_beep_timer                         bssCOMMON    007D
btemp                               (abs)        007E
saved_w                             (abs)        007E
wtemp0                              (abs)        007E
_OPTION_REG                         (abs)        0081
_TRISA                              (abs)        0085
_TRISB                              (abs)        0086
___eetoc                            text12       0045
__end_of_LCDSetCGRAMAddress         text14       0045
__ptext12                           text12       0045
_PCONbits                           (abs)        008E
_PR2                                (abs)        0092
_EEDATA                             (abs)        009A
_EEADR                              (abs)        009B
_EECON1                             (abs)        009C
_EECON1bits                         (abs)        009C
__pbssBANK1                         bssBANK1     00A0
_keys                               bssBANK1     00A0
__end_of___eetoc                    text12       0052
__getkey                            text8        0052
__ptext8                            text8        0052
__Hspace_1                          (abs)        00B0
__S1                                (abs)        00B0
__HcstackBANK0                      cstackBANK0  00B4
__HcstackCOMMON                     cstackCOMMON 00B4
__LcstackBANK0                      cstackBANK0  00B4
__LcstackCOMMON                     cstackCOMMON 00B4
__end_of__getkey                    text8        005A
clear_ram0                          clrtext      005A
__HbssBANK0                         bssBANK0     00C4
__HbssBANK1                         bssBANK1     00C4
__HbssCOMMON                        bssCOMMON    00C4
__HdataEEDATA                       dataEEDATA   00C4
__HidataEEDATA                      idataEEDATA  00C4
__Hinittext                         inittext     00C4
__LbssBANK0                         bssBANK0     00C4
__LbssBANK1                         bssBANK1     00C4
__LbssCOMMON                        bssCOMMON    00C4
__LdataEEDATA                       dataEEDATA   00C4
__LidataEEDATA                      idataEEDATA  00C4
__Linittext                         inittext     00C4
__end_of_gameB                      text3        0073
__ptext6                            text6        0073
_gameA                              text6        0073
__end_of_gameA                      text6        00BF
__ptext22                           text22       00BF
_isr                                text22       00BF
_LCDInit                            text16       0105
__end_of_isr                        text22       0105
__ptext16                           text16       0105
__end_of_LCDInit                    text16       014A
__pmaintext                         maintext     014A
_main                               maintext     014A
___eecpymem                         text13       0185
__end_of_main                       maintext     0185
__ptext13                           text13       0185
_LCDPut                             text20       01BA
__end_of___eecpymem                 text13       01BA
__ptext20                           text20       01BA
__end_of_LCDPut                     text20       01EE
__ptext30                           text30       01EE
i1_LCDPut                           text30       01EE
__Hspace_0                          (abs)        03FF
__S0                                (abs)        03FF
__end_ofi1_LCDPut                   text30       0220
__ptext2                            text2        0220
_game_menu                          text2        0220
_LCDWaitNotBusy                     text21       024F
__end_of_game_menu                  text2        024F
__ptext21                           text21       024F
__end_of_LCDWaitNotBusy             text21       027C
__ptext31                           text31       027C
__end_ofi1_LCDWaitNotBusy           text31       02A9
__pstrings                          strings      02A9
__stringtab                         strings      02A9
__stringbase                        strings      02B8
__end_of__stringtab                 strings      02B9
__ptext5                            text5        02D2
_gameB_redraw                       text5        02D2
_LCDStoreCustom5x8Character         text11       02F8
__end_of_gameB_redraw               text5        02F8
__ptext11                           text11       02F8
__end_of_LCDStoreCustom5x8Character text11       0319
__ptext25                           text25       0319
__end_ofi1_gameB_redraw             text25       0337
__ptext24                           text24       0337
_gameB_isr                          text24       0337
__end_of_gameB_isr                  text24       0354
__ptext1                            text1        0354
_init                               text1        0354
_LCDWriteString                     text9        036D
__end_of_init                       text1        036D
__ptext9                            text9        036D
__end_of_LCDWriteString             text9        0386
__ptext23                           text23       0386
_kbd_eval                           text23       0386
__end_of_kbd_eval                   text23       039E
__ptext26                           text26       039E
i1_LCDWaitNotBusy                   text31       027C
i1_gameB_redraw                     text25       0319
i1_LCDWriteString                   text26       039E
__end_ofi1_LCDWriteString           text26       03B5
__ptext7                            text7        03B5
_clearstr                           text7        03B5
_LCDSetCursorPos                    text10       03C7
__end_of_clearstr                   text7        03C7
__ptext10                           text10       03C7
__end_of_LCDSetCursorPos            text10       03D7
init_fetch0                         inittext     03D7
init_ram0                           inittext     03DB
__ptext28                           text28       03E6
i1_LCDSetCursorPos                  text28       03E6
__end_ofi1_LCDSetCursorPos          text28       03F4
__ptext4                            text4        03F4
_psrand                             text4        03F4
__end_of_psrand                     text4        03FF
__S3                                (abs)        2139
__Hidloc                            idloc        2004
__Hspace_4                          (abs)        400F
__Hconfig                           config       2008
